; Function Attrs: nofree nounwind uwtable
define noundef i32 @evutil_snprintf(ptr noundef captures(none) %0, i64 noundef %1, ptr noundef readonly captures(none) %2, ...) local_unnamed_addr #5 {
  %4 = alloca [1 x %struct.__va_list_tag], align 16
  call void @llvm.lifetime.start.p0(i64 24, ptr nonnull %4) #30
  call void @llvm.va_start.p0(ptr nonnull %4)
  %.not.i = icmp eq i64 %1, 0
  br i1 %.not.i, label %evutil_vsnprintf.exit, label %5

5:                                                ; preds = %3
  %6 = call i32 @vsnprintf(ptr noundef %0, i64 noundef %1, ptr noundef readonly %2, ptr noundef nonnull %4) #30
  %7 = getelementptr i8, ptr %0, i64 %1
  %8 = getelementptr i8, ptr %7, i64 -1
  store i8 0, ptr %8, align 1
  br label %evutil_vsnprintf.exit

evutil_vsnprintf.exit:                            ; preds = %3, %5
  %.0.i = phi i32 [ %6, %5 ], [ 0, %3 ]
  call void @llvm.va_end.p0(ptr nonnull %4)
  call void @llvm.lifetime.end.p0(i64 24, ptr nonnull %4) #30
  ret i32 %.0.i
}